target datalayout = "e-m:e-p270:32:32-p271:32:32-p272:64:64-i64:64-i128:128-f80:128-n8:16:32:64-S128"
target triple = "x86_64-pc-linux-gnu"

%struct.SDL_PixelFormatDetails = type { i32, i8, i8, [2 x i8], i32, i32, i32, i32, i8, i8, i8, i8, i8, i8, i8, i8 }

; Function Attrs: nounwind uwtable
define internal i32 @copy_32(ptr noundef %0, ptr noundef %1, i32 noundef %2, ptr noundef %3, ptr noundef %4) #0 {
  %6 = alloca ptr, align 8
  %7 = alloca ptr, align 8
  %8 = alloca i32, align 4
  %9 = alloca ptr, align 8
  %10 = alloca ptr, align 8
  %11 = alloca i32, align 4
  %12 = alloca ptr, align 8
  %13 = alloca i32, align 4
  %14 = alloca i32, align 4
  %15 = alloca i32, align 4
  %16 = alloca i32, align 4
  store ptr %0, ptr %6, align 8
  store ptr %1, ptr %7, align 8
  store i32 %2, ptr %8, align 4
  store ptr %3, ptr %9, align 8
  store ptr %4, ptr %10, align 8
  call void @llvm.lifetime.start.p0(i64 4, ptr %11) #8
  call void @llvm.lifetime.start.p0(i64 8, ptr %12) #8
  %17 = load ptr, ptr %6, align 8
  store ptr %17, ptr %12, align 8
  store i32 0, ptr %11, align 4
  br label %18

18:                                               ; preds = %113, %5
  %19 = load i32, ptr %11, align 4
  %20 = load i32, ptr %8, align 4
  %21 = icmp slt i32 %19, %20
  br i1 %21, label %22, label %116

22:                                               ; preds = %18
  call void @llvm.lifetime.start.p0(i64 4, ptr %13) #8
  call void @llvm.lifetime.start.p0(i64 4, ptr %14) #8
  call void @llvm.lifetime.start.p0(i64 4, ptr %15) #8
  call void @llvm.lifetime.start.p0(i64 4, ptr %16) #8
  %23 = load ptr, ptr %7, align 8
  %24 = load i32, ptr %23, align 4
  %25 = load ptr, ptr %9, align 8
  %26 = getelementptr inbounds nuw %struct.SDL_PixelFormatDetails, ptr %25, i32 0, i32 4
  %27 = load i32, ptr %26, align 4
  %28 = and i32 %24, %27
  %29 = load ptr, ptr %9, align 8
  %30 = getelementptr inbounds nuw %struct.SDL_PixelFormatDetails, ptr %29, i32 0, i32 12
  %31 = load i8, ptr %30, align 4
  %32 = zext i8 %31 to i32
  %33 = lshr i32 %28, %32
  store i32 %33, ptr %13, align 4
  %34 = load ptr, ptr %7, align 8
  %35 = load i32, ptr %34, align 4
  %36 = load ptr, ptr %9, align 8
  %37 = getelementptr inbounds nuw %struct.SDL_PixelFormatDetails, ptr %36, i32 0, i32 5
  %38 = load i32, ptr %37, align 4
  %39 = and i32 %35, %38
  %40 = load ptr, ptr %9, align 8
  %41 = getelementptr inbounds nuw %struct.SDL_PixelFormatDetails, ptr %40, i32 0, i32 13
  %42 = load i8, ptr %41, align 1
  %43 = zext i8 %42 to i32
  %44 = lshr i32 %39, %43
  store i32 %44, ptr %14, align 4
  %45 = load ptr, ptr %7, align 8
  %46 = load i32, ptr %45, align 4
  %47 = load ptr, ptr %9, align 8
  %48 = getelementptr inbounds nuw %struct.SDL_PixelFormatDetails, ptr %47, i32 0, i32 6
  %49 = load i32, ptr %48, align 4
  %50 = and i32 %46, %49
  %51 = load ptr, ptr %9, align 8
  %52 = getelementptr inbounds nuw %struct.SDL_PixelFormatDetails, ptr %51, i32 0, i32 14
  %53 = load i8, ptr %52, align 2
  %54 = zext i8 %53 to i32
  %55 = lshr i32 %50, %54
  store i32 %55, ptr %15, align 4
  %56 = load ptr, ptr %7, align 8
  %57 = load i32, ptr %56, align 4
  %58 = load ptr, ptr %9, align 8
  %59 = getelementptr inbounds nuw %struct.SDL_PixelFormatDetails, ptr %58, i32 0, i32 7
  %60 = load i32, ptr %59, align 4
  %61 = and i32 %57, %60
  %62 = load ptr, ptr %9, align 8
  %63 = getelementptr inbounds nuw %struct.SDL_PixelFormatDetails, ptr %62, i32 0, i32 15
  %64 = load i8, ptr %63, align 1
  %65 = zext i8 %64 to i32
  %66 = lshr i32 %61, %65
  store i32 %66, ptr %16, align 4
  %67 = load i32, ptr %13, align 4
  %68 = load ptr, ptr %10, align 8
  %69 = getelementptr inbounds nuw %struct.SDL_PixelFormatDetails, ptr %68, i32 0, i32 8
  %70 = load i8, ptr %69, align 4
  %71 = zext i8 %70 to i32
  %72 = sub nsw i32 8, %71
  %73 = lshr i32 %67, %72
  %74 = load ptr, ptr %10, align 8
  %75 = getelementptr inbounds nuw %struct.SDL_PixelFormatDetails, ptr %74, i32 0, i32 12
  %76 = load i8, ptr %75, align 4
  %77 = zext i8 %76 to i32
  %78 = shl i32 %73, %77
  %79 = load i32, ptr %14, align 4
  %80 = load ptr, ptr %10, align 8
  %81 = getelementptr inbounds nuw %struct.SDL_PixelFormatDetails, ptr %80, i32 0, i32 9
  %82 = load i8, ptr %81, align 1
  %83 = zext i8 %82 to i32
  %84 = sub nsw i32 8, %83
  %85 = lshr i32 %79, %84
  %86 = load ptr, ptr %10, align 8
  %87 = getelementptr inbounds nuw %struct.SDL_PixelFormatDetails, ptr %86, i32 0, i32 13
  %88 = load i8, ptr %87, align 1
  %89 = zext i8 %88 to i32
  %90 = shl i32 %85, %89
  %91 = or i32 %78, %90
  %92 = load i32, ptr %15, align 4
  %93 = load ptr, ptr %10, align 8
  %94 = getelementptr inbounds nuw %struct.SDL_PixelFormatDetails, ptr %93, i32 0, i32 10
  %95 = load i8, ptr %94, align 2
  %96 = zext i8 %95 to i32
  %97 = sub nsw i32 8, %96
  %98 = lshr i32 %92, %97
  %99 = load ptr, ptr %10, align 8
  %100 = getelementptr inbounds nuw %struct.SDL_PixelFormatDetails, ptr %99, i32 0, i32 14
  %101 = load i8, ptr %100, align 2
  %102 = zext i8 %101 to i32
  %103 = shl i32 %98, %102
  %104 = or i32 %91, %103
  %105 = load i32, ptr %16, align 4
  %106 = shl i32 %105, 24
  %107 = or i32 %104, %106
  %108 = load ptr, ptr %12, align 8
  store i32 %107, ptr %108, align 4
  %109 = load ptr, ptr %12, align 8
  %110 = getelementptr inbounds nuw i32, ptr %109, i32 1
  store ptr %110, ptr %12, align 8
  %111 = load ptr, ptr %7, align 8
  %112 = getelementptr inbounds nuw i32, ptr %111, i32 1
  store ptr %112, ptr %7, align 8
  call void @llvm.lifetime.end.p0(i64 4, ptr %16) #8
  call void @llvm.lifetime.end.p0(i64 4, ptr %15) #8
  call void @llvm.lifetime.end.p0(i64 4, ptr %14) #8
  call void @llvm.lifetime.end.p0(i64 4, ptr %13) #8
  br label %113

113:                                              ; preds = %22
  %114 = load i32, ptr %11, align 4
  %115 = add nsw i32 %114, 1
  store i32 %115, ptr %11, align 4
  br label %18, !llvm.loop !67

116:                                              ; preds = %18
  %117 = load i32, ptr %8, align 4
  %118 = mul nsw i32 %117, 4
  call void @llvm.lifetime.end.p0(i64 8, ptr %12) #8
  call void @llvm.lifetime.end.p0(i64 4, ptr %11) #8
  ret i32 %118
}