; Function Attrs: nofree norecurse nosync nounwind memory(argmem: readwrite) uwtable
define internal range(i32 -2147483648, 2147483645) i32 @copy_32(ptr noundef writeonly captures(none) %0, ptr noundef readonly captures(none) %1, i32 noundef %2, ptr noundef readonly captures(none) %3, ptr noundef readonly captures(none) %4) unnamed_addr #7 {
  %6 = icmp sgt i32 %2, 0
  br i1 %6, label %.lr.ph, label %._crit_edge

.lr.ph:                                           ; preds = %5
  %7 = getelementptr inbounds nuw i8, ptr %3, i64 8
  %8 = getelementptr inbounds nuw i8, ptr %3, i64 28
  %9 = getelementptr inbounds nuw i8, ptr %3, i64 12
  %10 = getelementptr inbounds nuw i8, ptr %3, i64 29
  %11 = getelementptr inbounds nuw i8, ptr %3, i64 16
  %12 = getelementptr inbounds nuw i8, ptr %3, i64 30
  %13 = getelementptr inbounds nuw i8, ptr %3, i64 20
  %14 = getelementptr inbounds nuw i8, ptr %3, i64 31
  %15 = getelementptr inbounds nuw i8, ptr %4, i64 24
  %16 = getelementptr inbounds nuw i8, ptr %4, i64 28
  %17 = getelementptr inbounds nuw i8, ptr %4, i64 25
  %18 = getelementptr inbounds nuw i8, ptr %4, i64 29
  %19 = getelementptr inbounds nuw i8, ptr %4, i64 26
  %20 = getelementptr inbounds nuw i8, ptr %4, i64 30
  br label %21

21:                                               ; preds = %.lr.ph, %21
  %.034 = phi ptr [ %1, %.lr.ph ], [ %69, %21 ]
  %.02933 = phi i32 [ 0, %.lr.ph ], [ %70, %21 ]
  %.03032 = phi ptr [ %0, %.lr.ph ], [ %68, %21 ]
  %22 = load i32, ptr %.034, align 4
  %23 = load i32, ptr %7, align 4
  %24 = and i32 %23, %22
  %25 = load i8, ptr %8, align 4
  %26 = zext nneg i8 %25 to i32
  %27 = lshr i32 %24, %26
  %28 = load i32, ptr %9, align 4
  %29 = and i32 %28, %22
  %30 = load i8, ptr %10, align 1
  %31 = zext nneg i8 %30 to i32
  %32 = lshr i32 %29, %31
  %33 = load i32, ptr %11, align 4
  %34 = and i32 %33, %22
  %35 = load i8, ptr %12, align 2
  %36 = zext nneg i8 %35 to i32
  %37 = lshr i32 %34, %36
  %38 = load i32, ptr %13, align 4
  %39 = and i32 %38, %22
  %40 = load i8, ptr %14, align 1
  %41 = zext nneg i8 %40 to i32
  %42 = lshr i32 %39, %41
  %43 = load i8, ptr %15, align 4
  %44 = zext i8 %43 to i32
  %45 = sub nsw i32 8, %44
  %46 = lshr i32 %27, %45
  %47 = load i8, ptr %16, align 4
  %48 = zext nneg i8 %47 to i32
  %49 = shl i32 %46, %48
  %50 = load i8, ptr %17, align 1
  %51 = zext i8 %50 to i32
  %52 = sub nsw i32 8, %51
  %53 = lshr i32 %32, %52
  %54 = load i8, ptr %18, align 1
  %55 = zext nneg i8 %54 to i32
  %56 = shl i32 %53, %55
  %57 = load i8, ptr %19, align 2
  %58 = zext i8 %57 to i32
  %59 = sub nsw i32 8, %58
  %60 = lshr i32 %37, %59
  %61 = load i8, ptr %20, align 2
  %62 = zext nneg i8 %61 to i32
  %63 = shl i32 %60, %62
  %64 = shl i32 %42, 24
  %65 = or i32 %49, %64
  %66 = or i32 %65, %56
  %67 = or i32 %66, %63
  store i32 %67, ptr %.03032, align 4
  %68 = getelementptr inbounds nuw i8, ptr %.03032, i64 4
  %69 = getelementptr inbounds nuw i8, ptr %.034, i64 4
  %70 = add nuw nsw i32 %.02933, 1
  %exitcond.not = icmp eq i32 %70, %2
  br i1 %exitcond.not, label %._crit_edge, label %21, !llvm.loop !81

._crit_edge:                                      ; preds = %21, %5
  %71 = shl nsw i32 %2, 2
  ret i32 %71
}